target datalayout = "e-m:e-p270:32:32-p271:32:32-p272:64:64-i64:64-i128:128-f80:128-n8:16:32:64-S128"
target triple = "x86_64-pc-linux-gnu"

%struct.tMPI_Thread = type { i64, i32 }

@_ZL13thread_id_key = internal global i32 0, align 4

; Function Attrs: mustprogress nounwind uwtable
define internal noundef ptr @_ZL22tMPI_Set_thread_id_keyi(i32 noundef %0) #0 {
  %2 = alloca ptr, align 8
  %3 = alloca i32, align 4
  %4 = alloca ptr, align 8
  store i32 %0, ptr %3, align 4
  %5 = call noalias ptr @malloc(i64 noundef 16) #9
  store ptr %5, ptr %4, align 8
  %6 = load ptr, ptr %4, align 8
  %7 = icmp eq ptr %6, null
  br i1 %7, label %8, label %9

8:                                                ; preds = %1
  store ptr null, ptr %2, align 8
  br label %20

9:                                                ; preds = %1
  %10 = call i64 @pthread_self() #10
  %11 = load ptr, ptr %4, align 8
  %12 = getelementptr inbounds %struct.tMPI_Thread, ptr %11, i32 0, i32 0
  store i64 %10, ptr %12, align 8
  %13 = load i32, ptr %3, align 4
  %14 = load ptr, ptr %4, align 8
  %15 = getelementptr inbounds %struct.tMPI_Thread, ptr %14, i32 0, i32 1
  store i32 %13, ptr %15, align 8
  %16 = load i32, ptr @_ZL13thread_id_key, align 4
  %17 = load ptr, ptr %4, align 8
  %18 = call i32 @pthread_setspecific(i32 noundef %16, ptr noundef %17) #8
  %19 = load ptr, ptr %4, align 8
  store ptr %19, ptr %2, align 8
  br label %20

20:                                               ; preds = %9, %8
  %21 = load ptr, ptr %2, align 8
  ret ptr %21
}

; Function Attrs: mustprogress uwtable
define noundef ptr @_Z16tMPI_Thread_selfv() #2 {
  %1 = alloca ptr, align 8
  %2 = alloca ptr, align 8
  %3 = alloca i32, align 4
  %4 = call noundef i32 @_ZL20tMPI_Init_thread_idsv()
  store i32 %4, ptr %3, align 4
  %5 = load i32, ptr %3, align 4
  %6 = icmp ne i32 %5, 0
  br i1 %6, label %7, label %8

7:                                                ; preds = %0
  store ptr null, ptr %1, align 8
  br label %17

8:                                                ; preds = %0
  %9 = load i32, ptr @_ZL13thread_id_key, align 4
  %10 = call ptr @pthread_getspecific(i32 noundef %9) #8
  store ptr %10, ptr %2, align 8
  %11 = load ptr, ptr %2, align 8
  %12 = icmp eq ptr %11, null
  br i1 %12, label %13, label %15

13:                                               ; preds = %8
  %14 = call noundef ptr @_ZL22tMPI_Set_thread_id_keyi(i32 noundef 0)
  store ptr %14, ptr %2, align 8
  br label %15

15:                                               ; preds = %13, %8
  %16 = load ptr, ptr %2, align 8
  store ptr %16, ptr %1, align 8
  br label %17

17:                                               ; preds = %15, %7
  %18 = load ptr, ptr %1, align 8
  ret ptr %18
}