; Function Attrs: mustprogress nounwind uwtable
define noundef ptr @_Z16tMPI_Thread_selfv() local_unnamed_addr #1 {
  %1 = tail call fastcc noundef i32 @_ZL20tMPI_Init_thread_idsv()
  %.not = icmp eq i32 %1, 0
  br i1 %.not, label %2, label %_ZL22tMPI_Set_thread_id_keyi.exit

2:                                                ; preds = %0
  %3 = load i32, ptr @_ZL13thread_id_key, align 4
  %4 = tail call ptr @pthread_getspecific(i32 noundef %3) #13
  %5 = icmp eq ptr %4, null
  br i1 %5, label %6, label %_ZL22tMPI_Set_thread_id_keyi.exit

6:                                                ; preds = %2
  %7 = tail call noalias dereferenceable_or_null(16) ptr @malloc(i64 noundef 16) #14
  %8 = icmp eq ptr %7, null
  br i1 %8, label %_ZL22tMPI_Set_thread_id_keyi.exit, label %9

9:                                                ; preds = %6
  %10 = tail call i64 @pthread_self() #15
  store i64 %10, ptr %7, align 8
  %11 = getelementptr inbounds i8, ptr %7, i64 8
  store i32 0, ptr %11, align 8
  %12 = load i32, ptr @_ZL13thread_id_key, align 4
  %13 = tail call i32 @pthread_setspecific(i32 noundef %12, ptr noundef nonnull %7) #13
  br label %_ZL22tMPI_Set_thread_id_keyi.exit

_ZL22tMPI_Set_thread_id_keyi.exit:                ; preds = %9, %6, %2, %0
  %.0 = phi ptr [ null, %0 ], [ %4, %2 ], [ null, %6 ], [ %7, %9 ]
  ret ptr %.0
}